target datalayout = "e-m:e-p270:32:32-p271:32:32-p272:64:64-i64:64-i128:128-f80:128-n8:16:32:64-S128"
target triple = "x86_64-pc-linux-gnu"

; Function Attrs: mustprogress nounwind uwtable
define internal void @_ZN5clang4ento14CheckerManager8destructIN12_GLOBAL__N_118PthreadLockCheckerEEEvPv(ptr noundef %0) #0 align 2 {
  %2 = alloca ptr, align 8
  store ptr %0, ptr %2, align 8
  %3 = load ptr, ptr %2, align 8
  %4 = icmp eq ptr %3, null
  br i1 %4, label %9, label %5

5:                                                ; preds = %1
  %6 = load ptr, ptr %3, align 8
  %7 = getelementptr inbounds ptr, ptr %6, i64 1
  %8 = load ptr, ptr %7, align 8
  call void %8(ptr noundef nonnull align 8 dereferenceable(280) %3) #11
  br label %9

9:                                                ; preds = %5, %1
  ret void
}